target datalayout = "e-m:e-p270:32:32-p271:32:32-p272:64:64-i64:64-i128:128-f80:128-n8:16:32:64-S128"
target triple = "x86_64-pc-linux-gnu"

%struct.FunctionCallInfoBaseData = type { ptr, ptr, ptr, i32, i8, i16, [0 x %struct.NullableDatum] }
%struct.NullableDatum = type { i64, i8 }
%struct.StringInfoData = type { ptr, i32, i32, i32 }
%struct.anon = type { i32, [0 x i8] }
%struct.JsonPath = type { i32, i32, [0 x i8] }
%struct.JsonPathItem = type { i32, i32, ptr, %union.anon }
%union.anon = type { %struct.anon.5 }
%struct.anon.5 = type { i32, ptr, i32, i32 }

@.str.41 = private unnamed_addr constant [8 x i8] c"strict \00", align 1

; Function Attrs: inlinehint nounwind uwtable
define internal void @pq_writeint8(ptr noalias noundef %0, i8 noundef zeroext %1) #2 {
  %3 = alloca ptr, align 8
  %4 = alloca i8, align 1
  %5 = alloca i8, align 1
  store ptr %0, ptr %3, align 8
  store i8 %1, ptr %4, align 1
  call void @llvm.lifetime.start.p0(i64 1, ptr %5) #9
  %6 = load i8, ptr %4, align 1
  store i8 %6, ptr %5, align 1
  %7 = load ptr, ptr %3, align 8
  %8 = getelementptr inbounds nuw %struct.StringInfoData, ptr %7, i32 0, i32 0
  %9 = load ptr, ptr %8, align 8
  %10 = load ptr, ptr %3, align 8
  %11 = getelementptr inbounds nuw %struct.StringInfoData, ptr %10, i32 0, i32 1
  %12 = load i32, ptr %11, align 8
  %13 = sext i32 %12 to i64
  %14 = getelementptr inbounds i8, ptr %9, i64 %13
  call void @llvm.memcpy.p0.p0.i64(ptr align 1 %14, ptr align 1 %5, i64 1, i1 false)
  %15 = load ptr, ptr %3, align 8
  %16 = getelementptr inbounds nuw %struct.StringInfoData, ptr %15, i32 0, i32 1
  %17 = load i32, ptr %16, align 8
  %18 = sext i32 %17 to i64
  %19 = add i64 %18, 1
  %20 = trunc i64 %19 to i32
  store i32 %20, ptr %16, align 8
  call void @llvm.lifetime.end.p0(i64 1, ptr %5) #9
  ret void
}

; Function Attrs: nounwind uwtable
define dso_local void @jspInit(ptr noundef %0, ptr noundef %1) #0 {
  %3 = alloca ptr, align 8
  %4 = alloca ptr, align 8
  store ptr %0, ptr %3, align 8
  store ptr %1, ptr %4, align 8
  %5 = load ptr, ptr %3, align 8
  %6 = load ptr, ptr %4, align 8
  %7 = getelementptr inbounds nuw %struct.JsonPath, ptr %6, i32 0, i32 2
  %8 = getelementptr inbounds [0 x i8], ptr %7, i64 0, i64 0
  call void @jspInitByBuffer(ptr noundef %5, ptr noundef %8, i32 noundef 0)
  ret void
}

; Function Attrs: inlinehint nounwind uwtable
define internal ptr @DatumGetPointer(i64 noundef %0) #2 {
  %2 = alloca i64, align 8
  store i64 %0, ptr %2, align 8
  %3 = load i64, ptr %2, align 8
  %4 = inttoptr i64 %3 to ptr
  ret ptr %4
}

; Function Attrs: inlinehint nounwind uwtable
define internal i64 @PointerGetDatum(ptr noundef %0) #2 {
  %2 = alloca ptr, align 8
  store ptr %0, ptr %2, align 8
  %3 = load ptr, ptr %2, align 8
  %4 = ptrtoint ptr %3 to i64
  ret i64 %4
}

; Function Attrs: inlinehint nounwind uwtable
define internal void @pq_sendint8(ptr noundef %0, i8 noundef zeroext %1) #2 {
  %3 = alloca ptr, align 8
  %4 = alloca i8, align 1
  store ptr %0, ptr %3, align 8
  store i8 %1, ptr %4, align 1
  %5 = load ptr, ptr %3, align 8
  call void @enlargeStringInfo(ptr noundef %5, i32 noundef 1)
  %6 = load ptr, ptr %3, align 8
  %7 = load i8, ptr %4, align 1
  call void @pq_writeint8(ptr noundef %6, i8 noundef zeroext %7)
  ret void
}

; Function Attrs: nounwind uwtable
define internal ptr @jsonPathToCstring(ptr noundef %0, ptr noundef %1, i32 noundef %2) #0 {
  %4 = alloca ptr, align 8
  %5 = alloca ptr, align 8
  %6 = alloca i32, align 4
  %7 = alloca %struct.StringInfoData, align 8
  %8 = alloca %struct.JsonPathItem, align 8
  store ptr %0, ptr %4, align 8
  store ptr %1, ptr %5, align 8
  store i32 %2, ptr %6, align 4
  call void @llvm.lifetime.start.p0(i64 24, ptr %7) #9
  call void @llvm.lifetime.start.p0(i64 40, ptr %8) #9
  %9 = load ptr, ptr %4, align 8
  %10 = icmp ne ptr %9, null
  br i1 %10, label %13, label %11

11:                                               ; preds = %3
  store ptr %7, ptr %4, align 8
  %12 = load ptr, ptr %4, align 8
  call void @initStringInfo(ptr noundef %12)
  br label %13

13:                                               ; preds = %11, %3
  %14 = load ptr, ptr %4, align 8
  %15 = load i32, ptr %6, align 4
  call void @enlargeStringInfo(ptr noundef %14, i32 noundef %15)
  %16 = load ptr, ptr %5, align 8
  %17 = getelementptr inbounds nuw %struct.JsonPath, ptr %16, i32 0, i32 1
  %18 = load i32, ptr %17, align 4
  %19 = and i32 %18, -2147483648
  %20 = icmp ne i32 %19, 0
  br i1 %20, label %23, label %21

21:                                               ; preds = %13
  %22 = load ptr, ptr %4, align 8
  call void @appendStringInfoString(ptr noundef %22, ptr noundef @.str.41)
  br label %23

23:                                               ; preds = %21, %13
  %24 = load ptr, ptr %5, align 8
  call void @jspInit(ptr noundef %8, ptr noundef %24)
  %25 = load ptr, ptr %4, align 8
  call void @printJsonPathItem(ptr noundef %25, ptr noundef %8, i1 noundef zeroext false, i1 noundef zeroext true)
  %26 = load ptr, ptr %4, align 8
  %27 = getelementptr inbounds nuw %struct.StringInfoData, ptr %26, i32 0, i32 0
  %28 = load ptr, ptr %27, align 8
  call void @llvm.lifetime.end.p0(i64 40, ptr %8) #9
  call void @llvm.lifetime.end.p0(i64 24, ptr %7) #9
  ret ptr %28
}

; Function Attrs: inlinehint nounwind uwtable
define internal ptr @DatumGetJsonPathP(i64 noundef %0) #2 {
  %2 = alloca i64, align 8
  store i64 %0, ptr %2, align 8
  %3 = load i64, ptr %2, align 8
  %4 = call ptr @DatumGetPointer(i64 noundef %3)
  %5 = call ptr @pg_detoast_datum(ptr noundef %4)
  ret ptr %5
}

; Function Attrs: nounwind uwtable
define dso_local i64 @jsonpath_send(ptr noundef %0) #0 {
  %2 = alloca ptr, align 8
  %3 = alloca ptr, align 8
  %4 = alloca %struct.StringInfoData, align 8
  %5 = alloca %struct.StringInfoData, align 8
  %6 = alloca i32, align 4
  store ptr %0, ptr %2, align 8
  call void @llvm.lifetime.start.p0(i64 8, ptr %3) #9
  %7 = load ptr, ptr %2, align 8
  %8 = getelementptr inbounds nuw %struct.FunctionCallInfoBaseData, ptr %7, i32 0, i32 6
  %9 = getelementptr inbounds [0 x %struct.NullableDatum], ptr %8, i64 0, i64 0
  %10 = getelementptr inbounds nuw %struct.NullableDatum, ptr %9, i32 0, i32 0
  %11 = load i64, ptr %10, align 8
  %12 = call ptr @DatumGetJsonPathP(i64 noundef %11)
  store ptr %12, ptr %3, align 8
  call void @llvm.lifetime.start.p0(i64 24, ptr %4) #9
  call void @llvm.lifetime.start.p0(i64 24, ptr %5) #9
  call void @llvm.lifetime.start.p0(i64 4, ptr %6) #9
  store i32 1, ptr %6, align 4
  call void @initStringInfo(ptr noundef %5)
  %13 = load ptr, ptr %3, align 8
  %14 = load ptr, ptr %3, align 8
  %15 = getelementptr inbounds nuw %struct.anon, ptr %14, i32 0, i32 0
  %16 = load i32, ptr %15, align 4
  %17 = lshr i32 %16, 2
  %18 = and i32 %17, 1073741823
  %19 = call ptr @jsonPathToCstring(ptr noundef %5, ptr noundef %13, i32 noundef %18)
  call void @pq_begintypsend(ptr noundef %4)
  %20 = load i32, ptr %6, align 4
  %21 = trunc i32 %20 to i8
  call void @pq_sendint8(ptr noundef %4, i8 noundef zeroext %21)
  %22 = getelementptr inbounds nuw %struct.StringInfoData, ptr %5, i32 0, i32 0
  %23 = load ptr, ptr %22, align 8
  %24 = getelementptr inbounds nuw %struct.StringInfoData, ptr %5, i32 0, i32 1
  %25 = load i32, ptr %24, align 8
  call void @pq_sendtext(ptr noundef %4, ptr noundef %23, i32 noundef %25)
  %26 = getelementptr inbounds nuw %struct.StringInfoData, ptr %5, i32 0, i32 0
  %27 = load ptr, ptr %26, align 8
  call void @pfree(ptr noundef %27)
  %28 = call ptr @pq_endtypsend(ptr noundef %4)
  %29 = call i64 @PointerGetDatum(ptr noundef %28)
  call void @llvm.lifetime.end.p0(i64 4, ptr %6) #9
  call void @llvm.lifetime.end.p0(i64 24, ptr %5) #9
  call void @llvm.lifetime.end.p0(i64 24, ptr %4) #9
  call void @llvm.lifetime.end.p0(i64 8, ptr %3) #9
  ret i64 %29
}