; Function Attrs: nounwind uwtable
define dso_local i64 @jsonpath_send(ptr noundef readonly captures(none) %0) local_unnamed_addr #0 {
  %2 = alloca %struct.JsonPathItem, align 8
  %3 = alloca %struct.StringInfoData, align 8
  %4 = alloca %struct.StringInfoData, align 8
  %5 = getelementptr inbounds nuw i8, ptr %0, i64 32
  %6 = load i64, ptr %5, align 8
  %7 = inttoptr i64 %6 to ptr
  %8 = tail call ptr @pg_detoast_datum(ptr noundef %7) #13
  call void @llvm.lifetime.start.p0(i64 24, ptr nonnull %3) #13
  call void @llvm.lifetime.start.p0(i64 24, ptr nonnull %4) #13
  call void @initStringInfo(ptr noundef nonnull %4) #13
  %9 = load i32, ptr %8, align 4
  %10 = lshr i32 %9, 2
  call void @llvm.lifetime.start.p0(i64 40, ptr nonnull %2) #13
  call void @enlargeStringInfo(ptr noundef nonnull %4, i32 noundef range(i32 0, 1073741824) %10) #13
  %11 = getelementptr inbounds nuw i8, ptr %8, i64 4
  %12 = load i32, ptr %11, align 4
  %.not10.i = icmp sgt i32 %12, -1
  br i1 %.not10.i, label %13, label %jsonPathToCstring.exit

13:                                               ; preds = %1
  call void @appendStringInfoString(ptr noundef nonnull %4, ptr noundef nonnull @.str.41) #13
  br label %jsonPathToCstring.exit

jsonPathToCstring.exit:                           ; preds = %1, %13
  %14 = getelementptr inbounds nuw i8, ptr %8, i64 8
  call void @jspInitByBuffer(ptr noundef nonnull %2, ptr noundef nonnull %14, i32 noundef 0)
  call fastcc void @printJsonPathItem(ptr noundef %4, ptr noundef %2, i1 noundef zeroext false, i1 noundef zeroext true)
  call void @llvm.lifetime.end.p0(i64 40, ptr nonnull %2) #13
  call void @pq_begintypsend(ptr noundef nonnull %3) #13
  call void @enlargeStringInfo(ptr noundef nonnull %3, i32 noundef 1) #13
  call void @llvm.experimental.noalias.scope.decl(metadata !6)
  %15 = load ptr, ptr %3, align 8, !alias.scope !6
  %16 = getelementptr inbounds nuw i8, ptr %3, i64 8
  %17 = load i32, ptr %16, align 8, !alias.scope !6
  %18 = sext i32 %17 to i64
  %19 = getelementptr inbounds i8, ptr %15, i64 %18
  store i8 1, ptr %19, align 1, !noalias !6
  %20 = add i32 %17, 1
  store i32 %20, ptr %16, align 8, !alias.scope !6
  %21 = load ptr, ptr %4, align 8
  %22 = getelementptr inbounds nuw i8, ptr %4, i64 8
  %23 = load i32, ptr %22, align 8
  call void @pq_sendtext(ptr noundef nonnull %3, ptr noundef %21, i32 noundef %23) #13
  %24 = load ptr, ptr %4, align 8
  call void @pfree(ptr noundef %24) #13
  %25 = call ptr @pq_endtypsend(ptr noundef nonnull %3) #13
  %26 = ptrtoint ptr %25 to i64
  call void @llvm.lifetime.end.p0(i64 24, ptr nonnull %4) #13
  call void @llvm.lifetime.end.p0(i64 24, ptr nonnull %3) #13
  ret i64 %26
}